target datalayout = "e-m:e-p270:32:32-p271:32:32-p272:64:64-i64:64-i128:128-f80:128-n8:16:32:64-S128"
target triple = "x86_64-pc-linux-gnu"

%"class.sat::literal" = type { i32 }
%"class.smt::dyn_ack_manager" = type { ptr, ptr, ptr, %class.obj_pair_map, %class.svector, %class.svector, i32, i32, i32, [4 x i8], %class.obj_pair_hashtable, %class.obj_map, %"struct.smt::dyn_ack_manager::_triple" }
%class.obj_pair_map = type { %class.core_hashtable }
%class.core_hashtable = type <{ ptr, i32, i32, i32, [4 x i8] }>
%class.svector = type { %class.vector }
%class.vector = type { ptr }
%class.obj_pair_hashtable = type { %class.core_hashtable.base.2, [4 x i8] }
%class.core_hashtable.base.2 = type <{ ptr, i32, i32, i32 }>
%class.obj_map = type { %class.core_hashtable.3 }
%class.core_hashtable.3 = type <{ ptr, i32, i32, i32, [4 x i8] }>
%"struct.smt::dyn_ack_manager::_triple" = type { %class.obj_triple_map, %class.svector.11, %class.svector.11, i32, i32, i32, [4 x i8], %class.obj_triple_hashtable, %class.obj_map.16 }
%class.obj_triple_map = type { %class.core_hashtable.7 }
%class.core_hashtable.7 = type <{ ptr, i32, i32, i32, [4 x i8] }>
%class.svector.11 = type { %class.vector.12 }
%class.vector.12 = type { ptr }
%class.obj_triple_hashtable = type { %class.core_hashtable.base.15, [4 x i8] }
%class.core_hashtable.base.15 = type <{ ptr, i32, i32, i32 }>
%class.obj_map.16 = type { %class.core_hashtable.17 }
%class.core_hashtable.17 = type <{ ptr, i32, i32, i32, [4 x i8] }>
%class.obj_ref.108 = type { ptr, ptr }
%class.ast = type { i32, i32, i32, i32 }

; Function Attrs: mustprogress nounwind uwtable
define linkonce_odr hidden void @_ZN3ast7inc_refEv(ptr noundef nonnull align 4 dereferenceable(16) %0) #4 comdat align 2 {
  %2 = alloca ptr, align 8
  store ptr %0, ptr %2, align 8, !tbaa !553
  %3 = load ptr, ptr %2, align 8
  %4 = getelementptr inbounds nuw %class.ast, ptr %3, i32 0, i32 2
  %5 = load i32, ptr %4, align 4, !tbaa !754
  %6 = add i32 %5, 1
  store i32 %6, ptr %4, align 4, !tbaa !754
  ret void
}

; Function Attrs: mustprogress uwtable
define linkonce_odr hidden void @_ZN11ast_manager7inc_refEP3ast(ptr noundef nonnull align 8 dereferenceable(976) %0, ptr noundef %1) #6 comdat align 2 {
  %3 = alloca ptr, align 8
  %4 = alloca ptr, align 8
  store ptr %0, ptr %3, align 8, !tbaa !34
  store ptr %1, ptr %4, align 8, !tbaa !553
  %5 = load ptr, ptr %4, align 8, !tbaa !553
  %6 = icmp ne ptr %5, null
  br i1 %6, label %7, label %9

7:                                                ; preds = %2
  %8 = load ptr, ptr %4, align 8, !tbaa !553
  call void @_ZN3ast7inc_refEv(ptr noundef nonnull align 4 dereferenceable(16) %8)
  br label %9

9:                                                ; preds = %7, %2
  ret void
}

; Function Attrs: mustprogress uwtable
define linkonce_odr hidden void @_ZN7obj_refI3app11ast_managerE7inc_refEv(ptr noundef nonnull align 8 dereferenceable(16) %0) #6 comdat align 2 {
  %2 = alloca ptr, align 8
  store ptr %0, ptr %2, align 8, !tbaa !604
  %3 = load ptr, ptr %2, align 8
  %4 = getelementptr inbounds nuw %class.obj_ref.108, ptr %3, i32 0, i32 0
  %5 = load ptr, ptr %4, align 8, !tbaa !606
  %6 = icmp ne ptr %5, null
  br i1 %6, label %7, label %12

7:                                                ; preds = %1
  %8 = getelementptr inbounds nuw %class.obj_ref.108, ptr %3, i32 0, i32 1
  %9 = load ptr, ptr %8, align 8, !tbaa !886
  %10 = getelementptr inbounds nuw %class.obj_ref.108, ptr %3, i32 0, i32 0
  %11 = load ptr, ptr %10, align 8, !tbaa !606
  call void @_ZN11ast_manager7inc_refEP3ast(ptr noundef nonnull align 8 dereferenceable(976) %9, ptr noundef %11)
  br label %12

12:                                               ; preds = %7, %1
  ret void
}

; Function Attrs: mustprogress nounwind uwtable
define linkonce_odr hidden noundef i32 @_ZNK11ast_manager9get_eq_opEPK4expr(ptr noundef nonnull align 8 dereferenceable(976) %0, ptr noundef %1) #4 comdat align 2 {
  %3 = alloca ptr, align 8
  %4 = alloca ptr, align 8
  store ptr %0, ptr %3, align 8, !tbaa !34
  store ptr %1, ptr %4, align 8, !tbaa !569
  ret i32 2
}

; Function Attrs: mustprogress nounwind uwtable
define linkonce_odr hidden noundef ptr @_ZNK7obj_refI3app11ast_managerEcvPS0_Ev(ptr noundef nonnull align 8 dereferenceable(16) %0) #4 comdat align 2 {
  %2 = alloca ptr, align 8
  store ptr %0, ptr %2, align 8, !tbaa !604
  %3 = load ptr, ptr %2, align 8
  %4 = getelementptr inbounds nuw %class.obj_ref.108, ptr %3, i32 0, i32 0
  %5 = load ptr, ptr %4, align 8, !tbaa !606
  ret ptr %5
}

; Function Attrs: mustprogress uwtable
define linkonce_odr hidden void @_ZN7obj_refI3app11ast_managerEC2EPS0_RS1_(ptr noundef nonnull align 8 dereferenceable(16) %0, ptr noundef %1, ptr noundef nonnull align 8 dereferenceable(976) %2) unnamed_addr #6 comdat align 2 {
  %4 = alloca ptr, align 8
  %5 = alloca ptr, align 8
  %6 = alloca ptr, align 8
  store ptr %0, ptr %4, align 8, !tbaa !604
  store ptr %1, ptr %5, align 8, !tbaa !564
  store ptr %2, ptr %6, align 8, !tbaa !34
  %7 = load ptr, ptr %4, align 8
  %8 = getelementptr inbounds nuw %class.obj_ref.108, ptr %7, i32 0, i32 0
  %9 = load ptr, ptr %5, align 8, !tbaa !564
  store ptr %9, ptr %8, align 8, !tbaa !606
  %10 = getelementptr inbounds nuw %class.obj_ref.108, ptr %7, i32 0, i32 1
  %11 = load ptr, ptr %6, align 8, !tbaa !34
  store ptr %11, ptr %10, align 8, !tbaa !34
  call void @_ZN7obj_refI3app11ast_managerE7inc_refEv(ptr noundef nonnull align 8 dereferenceable(16) %7)
  ret void
}

; Function Attrs: mustprogress uwtable
define linkonce_odr hidden noundef ptr @_ZN11ast_manager5mk_eqEP4exprS1_(ptr noundef nonnull align 8 dereferenceable(976) %0, ptr noundef %1, ptr noundef %2) #6 comdat align 2 {
  %4 = alloca ptr, align 8
  %5 = alloca ptr, align 8
  %6 = alloca ptr, align 8
  store ptr %0, ptr %4, align 8, !tbaa !34
  store ptr %1, ptr %5, align 8, !tbaa !569
  store ptr %2, ptr %6, align 8, !tbaa !569
  %7 = load ptr, ptr %4, align 8
  %8 = load ptr, ptr %5, align 8, !tbaa !569
  %9 = call noundef i32 @_ZNK11ast_manager9get_eq_opEPK4expr(ptr noundef nonnull align 8 dereferenceable(976) %7, ptr noundef %8)
  %10 = load ptr, ptr %5, align 8, !tbaa !569
  %11 = load ptr, ptr %6, align 8, !tbaa !569
  %12 = call noundef ptr @_ZN11ast_manager6mk_appEiiP4exprS1_(ptr noundef nonnull align 8 dereferenceable(976) %7, i32 noundef 0, i32 noundef %9, ptr noundef %10, ptr noundef %11)
  ret ptr %12
}

; Function Attrs: mustprogress uwtable
define hidden i32 @_ZN3smt15dyn_ack_manager5mk_eqEP4exprS2_(ptr noundef nonnull align 8 dereferenceable(232) %0, ptr noundef %1, ptr noundef %2) #6 align 2 personality ptr @__gxx_personality_v0 {
  %4 = alloca %"class.sat::literal", align 4
  %5 = alloca ptr, align 8
  %6 = alloca ptr, align 8
  %7 = alloca ptr, align 8
  %8 = alloca %class.obj_ref.108, align 8
  %9 = alloca ptr, align 8
  %10 = alloca i32, align 4
  store ptr %0, ptr %5, align 8, !tbaa !28
  store ptr %1, ptr %6, align 8, !tbaa !569
  store ptr %2, ptr %7, align 8, !tbaa !569
  %11 = load ptr, ptr %5, align 8
  call void @llvm.lifetime.start.p0(i64 16, ptr %8) #3
  %12 = getelementptr inbounds nuw %"class.smt::dyn_ack_manager", ptr %11, i32 0, i32 1
  %13 = load ptr, ptr %12, align 8, !tbaa !541
  %14 = load ptr, ptr %6, align 8, !tbaa !569
  %15 = load ptr, ptr %7, align 8, !tbaa !569
  %16 = call noundef ptr @_ZN11ast_manager5mk_eqEP4exprS1_(ptr noundef nonnull align 8 dereferenceable(976) %13, ptr noundef %14, ptr noundef %15)
  %17 = getelementptr inbounds nuw %"class.smt::dyn_ack_manager", ptr %11, i32 0, i32 1
  %18 = load ptr, ptr %17, align 8, !tbaa !541
  call void @_ZN7obj_refI3app11ast_managerEC2EPS0_RS1_(ptr noundef nonnull align 8 dereferenceable(16) %8, ptr noundef %16, ptr noundef nonnull align 8 dereferenceable(976) %18)
  %19 = getelementptr inbounds nuw %"class.smt::dyn_ack_manager", ptr %11, i32 0, i32 0
  %20 = load ptr, ptr %19, align 8, !tbaa !585
  %21 = invoke noundef ptr @_ZNK7obj_refI3app11ast_managerEcvPS0_Ev(ptr noundef nonnull align 8 dereferenceable(16) %8)
          to label %22 unwind label %33

22:                                               ; preds = %3
  invoke void @_ZN3smt7context11internalizeEP4exprb(ptr noundef nonnull align 8 dereferenceable(10544) %20, ptr noundef %21, i1 noundef zeroext true)
          to label %23 unwind label %33

23:                                               ; preds = %22
  %24 = getelementptr inbounds nuw %"class.smt::dyn_ack_manager", ptr %11, i32 0, i32 0
  %25 = load ptr, ptr %24, align 8, !tbaa !585
  %26 = invoke noundef ptr @_ZNK7obj_refI3app11ast_managerEcvPS0_Ev(ptr noundef nonnull align 8 dereferenceable(16) %8)
          to label %27 unwind label %33

27:                                               ; preds = %23
  %28 = invoke i32 @_ZNK3smt7context11get_literalEP4expr(ptr noundef nonnull align 8 dereferenceable(10544) %25, ptr noundef %26)
          to label %29 unwind label %33

29:                                               ; preds = %27
  %30 = getelementptr inbounds nuw %"class.sat::literal", ptr %4, i32 0, i32 0
  store i32 %28, ptr %30, align 4
  call void @_ZN7obj_refI3app11ast_managerED2Ev(ptr noundef nonnull align 8 dereferenceable(16) %8) #3
  call void @llvm.lifetime.end.p0(i64 16, ptr %8) #3
  %31 = getelementptr inbounds nuw %"class.sat::literal", ptr %4, i32 0, i32 0
  %32 = load i32, ptr %31, align 4
  ret i32 %32

33:                                               ; preds = %27, %23, %22, %3
  %34 = landingpad { ptr, i32 }
          cleanup
  %35 = extractvalue { ptr, i32 } %34, 0
  store ptr %35, ptr %9, align 8
  %36 = extractvalue { ptr, i32 } %34, 1
  store i32 %36, ptr %10, align 4
  call void @_ZN7obj_refI3app11ast_managerED2Ev(ptr noundef nonnull align 8 dereferenceable(16) %8) #3
  call void @llvm.lifetime.end.p0(i64 16, ptr %8) #3
  br label %37

37:                                               ; preds = %33
  %38 = load ptr, ptr %9, align 8
  %39 = load i32, ptr %10, align 4
  %40 = insertvalue { ptr, i32 } poison, ptr %38, 0
  %41 = insertvalue { ptr, i32 } %40, i32 %39, 1
  resume { ptr, i32 } %41
}