; Function Attrs: mustprogress uwtable
define hidden i32 @_ZN3smt15dyn_ack_manager5mk_eqEP4exprS2_(ptr noundef nonnull readonly align 8 captures(none) dereferenceable(232) %0, ptr noundef %1, ptr noundef %2) local_unnamed_addr #4 align 2 personality ptr @__gxx_personality_v0 {
  %4 = alloca %class.obj_ref.108, align 8
  call void @llvm.lifetime.start.p0(i64 16, ptr nonnull %4) #21
  %5 = getelementptr inbounds nuw i8, ptr %0, i64 8
  %6 = load ptr, ptr %5, align 8, !tbaa !542
  %7 = tail call noundef ptr @_ZN11ast_manager6mk_appEiiP4exprS1_(ptr noundef nonnull align 8 dereferenceable(976) %6, i32 noundef 0, i32 noundef 2, ptr noundef %1, ptr noundef %2)
  %8 = load ptr, ptr %5, align 8, !tbaa !542
  store ptr %7, ptr %4, align 8, !tbaa !688
  %9 = getelementptr inbounds nuw i8, ptr %4, i64 8
  store ptr %8, ptr %9, align 8, !tbaa !505
  %.not.i.i = icmp eq ptr %7, null
  br i1 %.not.i.i, label %_ZN7obj_refI3app11ast_managerEC2EPS0_RS1_.exit, label %_ZN11ast_manager7inc_refEP3ast.exit.i.i

_ZN11ast_manager7inc_refEP3ast.exit.i.i:          ; preds = %3
  %10 = getelementptr inbounds nuw i8, ptr %7, i64 8
  %11 = load i32, ptr %10, align 4, !tbaa !545
  %12 = add i32 %11, 1
  store i32 %12, ptr %10, align 4, !tbaa !545
  br label %_ZN7obj_refI3app11ast_managerEC2EPS0_RS1_.exit

_ZN7obj_refI3app11ast_managerEC2EPS0_RS1_.exit:   ; preds = %3, %_ZN11ast_manager7inc_refEP3ast.exit.i.i
  %13 = load ptr, ptr %0, align 8, !tbaa !600
  invoke void @_ZN3smt7context11internalizeEP4exprb(ptr noundef nonnull align 8 dereferenceable(10544) %13, ptr noundef %7, i1 noundef zeroext true)
          to label %14 unwind label %27

14:                                               ; preds = %_ZN7obj_refI3app11ast_managerEC2EPS0_RS1_.exit
  %15 = load ptr, ptr %0, align 8, !tbaa !600
  %16 = invoke i32 @_ZNK3smt7context11get_literalEP4expr(ptr noundef nonnull align 8 dereferenceable(10544) %15, ptr noundef %7)
          to label %17 unwind label %27

17:                                               ; preds = %14
  br i1 %.not.i.i, label %_ZN7obj_refI3app11ast_managerED2Ev.exit, label %18

18:                                               ; preds = %17
  %19 = getelementptr inbounds nuw i8, ptr %7, i64 8
  %20 = load i32, ptr %19, align 4, !tbaa !545
  %21 = add i32 %20, -1
  store i32 %21, ptr %19, align 4, !tbaa !545
  %22 = icmp eq i32 %21, 0
  br i1 %22, label %23, label %_ZN7obj_refI3app11ast_managerED2Ev.exit

23:                                               ; preds = %18
  invoke void @_ZN11ast_manager11delete_nodeEP3ast(ptr noundef nonnull align 8 dereferenceable(976) %8, ptr noundef nonnull %7)
          to label %_ZN7obj_refI3app11ast_managerED2Ev.exit unwind label %24

24:                                               ; preds = %23
  %25 = landingpad { ptr, i32 }
          catch ptr null
  %26 = extractvalue { ptr, i32 } %25, 0
  tail call void @__clang_call_terminate(ptr %26) #22
  unreachable

_ZN7obj_refI3app11ast_managerED2Ev.exit:          ; preds = %17, %18, %23
  call void @llvm.lifetime.end.p0(i64 16, ptr nonnull %4) #21
  ret i32 %16

27:                                               ; preds = %14, %_ZN7obj_refI3app11ast_managerEC2EPS0_RS1_.exit
  %28 = landingpad { ptr, i32 }
          cleanup
  call void @_ZN7obj_refI3app11ast_managerED2Ev(ptr noundef nonnull align 8 dereferenceable(16) %4) #21
  call void @llvm.lifetime.end.p0(i64 16, ptr nonnull %4) #21
  resume { ptr, i32 } %28
}